target datalayout = "e-m:e-p270:32:32-p271:32:32-p272:64:64-i64:64-i128:128-f80:128-n8:16:32:64-S128"
target triple = "x86_64-unknown-linux-gnu"

%"class.llvh::StringRef" = type { ptr, i64 }
%"class.llvh::SmallVectorBase" = type { ptr, i32, i32 }

; Function Attrs: mustprogress nounwind uwtable
define linkonce_odr hidden void @_ZN4llvh15SmallVectorBase8set_sizeEm(ptr noundef nonnull align 8 dereferenceable(16) %this, i64 noundef %Size) #0 comdat align 2 {
entry:
  %this.addr = alloca ptr, align 8
  %Size.addr = alloca i64, align 8
  store ptr %this, ptr %this.addr, align 8
  store i64 %Size, ptr %Size.addr, align 8
  %this1 = load ptr, ptr %this.addr, align 8
  %0 = load i64, ptr %Size.addr, align 8
  %conv = trunc i64 %0 to i32
  %Size2 = getelementptr inbounds %"class.llvh::SmallVectorBase", ptr %this1, i32 0, i32 1
  store i32 %conv, ptr %Size2, align 8
  ret void
}

; Function Attrs: mustprogress nounwind uwtable
define linkonce_odr hidden noundef i64 @_ZNK4llvh15SmallVectorBase4sizeEv(ptr noundef nonnull align 8 dereferenceable(16) %this) #0 comdat align 2 {
entry:
  %this.addr = alloca ptr, align 8
  store ptr %this, ptr %this.addr, align 8
  %this1 = load ptr, ptr %this.addr, align 8
  %Size = getelementptr inbounds %"class.llvh::SmallVectorBase", ptr %this1, i32 0, i32 1
  %0 = load i32, ptr %Size, align 8
  %conv = zext i32 %0 to i64
  ret i64 %conv
}

; Function Attrs: mustprogress nounwind uwtable
define hidden void @_ZN4llvh3sys4path15remove_filenameERNS_15SmallVectorImplIcEENS1_5StyleE(ptr noundef nonnull align 8 dereferenceable(16) %path, i32 noundef %style) #0 {
entry:
  %this.addr.i3 = alloca ptr, align 8
  %data.addr.i = alloca ptr, align 8
  %length.addr.i = alloca i64, align 8
  %this.addr.i = alloca ptr, align 8
  %path.addr = alloca ptr, align 8
  %style.addr = alloca i32, align 4
  %end_pos = alloca i64, align 8
  %agg.tmp = alloca %"class.llvh::StringRef", align 8
  store ptr %path, ptr %path.addr, align 8
  store i32 %style, ptr %style.addr, align 4
  %0 = load ptr, ptr %path.addr, align 8
  store ptr %0, ptr %this.addr.i, align 8
  %this1.i = load ptr, ptr %this.addr.i, align 8
  %1 = load ptr, ptr %this1.i, align 8
  %2 = load ptr, ptr %path.addr, align 8
  %call1 = call noundef i64 @_ZNK4llvh15SmallVectorBase4sizeEv(ptr noundef nonnull align 8 dereferenceable(16) %2)
  store ptr %agg.tmp, ptr %this.addr.i3, align 8
  store ptr %1, ptr %data.addr.i, align 8
  store i64 %call1, ptr %length.addr.i, align 8
  %this1.i4 = load ptr, ptr %this.addr.i3, align 8
  %3 = load ptr, ptr %data.addr.i, align 8
  store ptr %3, ptr %this1.i4, align 8
  %Length.i = getelementptr inbounds %"class.llvh::StringRef", ptr %this1.i4, i32 0, i32 1
  %4 = load i64, ptr %length.addr.i, align 8
  store i64 %4, ptr %Length.i, align 8
  %5 = load i32, ptr %style.addr, align 4
  %6 = getelementptr inbounds { ptr, i64 }, ptr %agg.tmp, i32 0, i32 0
  %7 = load ptr, ptr %6, align 8
  %8 = getelementptr inbounds { ptr, i64 }, ptr %agg.tmp, i32 0, i32 1
  %9 = load i64, ptr %8, align 8
  %call2 = call noundef i64 @_ZN12_GLOBAL__N_115parent_path_endEN4llvh9StringRefENS0_3sys4path5StyleE(ptr %7, i64 %9, i32 noundef %5)
  store i64 %call2, ptr %end_pos, align 8
  %10 = load i64, ptr %end_pos, align 8
  %cmp = icmp ne i64 %10, -1
  br i1 %cmp, label %if.then, label %if.end

if.then:                                          ; preds = %entry
  %11 = load ptr, ptr %path.addr, align 8
  %12 = load i64, ptr %end_pos, align 8
  call void @_ZN4llvh15SmallVectorBase8set_sizeEm(ptr noundef nonnull align 8 dereferenceable(16) %11, i64 noundef %12)
  br label %if.end

if.end:                                           ; preds = %if.then, %entry
  ret void
}