; Function Attrs: mustprogress nounwind uwtable
define hidden void @_ZN4llvh3sys4path15remove_filenameERNS_15SmallVectorImplIcEENS1_5StyleE(ptr nocapture noundef nonnull align 8 dereferenceable(16) %path, i32 noundef %style) local_unnamed_addr #0 {
entry:
  %0 = load ptr, ptr %path, align 8
  %Size.i = getelementptr inbounds i8, ptr %path, i64 8
  %1 = load i32, ptr %Size.i, align 8
  %conv.i = zext i32 %1 to i64
  %call2 = tail call fastcc noundef i64 @_ZN12_GLOBAL__N_115parent_path_endEN4llvh9StringRefENS0_3sys4path5StyleE(ptr %0, i64 %conv.i, i32 noundef %style)
  %cmp.not = icmp eq i64 %call2, -1
  br i1 %cmp.not, label %if.end, label %if.then

if.then:                                          ; preds = %entry
  %conv.i4 = trunc i64 %call2 to i32
  store i32 %conv.i4, ptr %Size.i, align 8
  br label %if.end

if.end:                                           ; preds = %if.then, %entry
  ret void
}